; Function Attrs: mustprogress nounwind willreturn uwtable
define void @free_array(ptr noundef captures(address_is_null) %0) local_unnamed_addr #2 {
  %.not = icmp eq ptr %0, null
  br i1 %.not, label %4, label %2

2:                                                ; preds = %1
  %3 = load ptr, ptr %0, align 8, !tbaa !8
  tail call void @free(ptr noundef %3) #21
  tail call void @free(ptr noundef nonnull %0) #21
  br label %4

4:                                                ; preds = %2, %1
  ret void
}